target datalayout = "e-m:e-p270:32:32-p271:32:32-p272:64:64-i64:64-i128:128-f80:128-n8:16:32:64-S128"
target triple = "x86_64-unknown-linux-gnu"

%"class.proxygen::HTTPParallelCodec" = type <{ %"class.proxygen::HTTPCodec", i8, [7 x i8], i64, i64, ptr, i64, i64, %"class.std::__cxx11::basic_string", i32, [4 x i8] }>
%"class.proxygen::HTTPCodec" = type { ptr }
%"class.std::__cxx11::basic_string" = type { %"struct.std::__cxx11::basic_string<char>::_Alloc_hider", i64, %union.anon }
%"struct.std::__cxx11::basic_string<char>::_Alloc_hider" = type { ptr }
%union.anon = type { i64, [8 x i8] }

; Function Attrs: mustprogress nounwind uwtable
define linkonce_odr noundef i32 @_ZNSt14numeric_limitsIiE3maxEv() #5 comdat align 2 {
entry:
  ret i32 2147483647
}

; Function Attrs: mustprogress nounwind uwtable
define linkonce_odr noundef i32 @_ZNSt14numeric_limitsIjE3maxEv() #5 comdat align 2 {
entry:
  ret i32 -1
}

; Function Attrs: mustprogress uwtable
define noundef zeroext i1 @_ZNK8proxygen17HTTPParallelCodec10isReusableEv(ptr noundef nonnull align 8 dereferenceable(92) %this) unnamed_addr #4 align 2 {
entry:
  %this.addr = alloca ptr, align 8
  store ptr %this, ptr %this.addr, align 8
  %this1 = load ptr, ptr %this.addr, align 8
  %sessionClosing_ = getelementptr inbounds %"class.proxygen::HTTPParallelCodec", ptr %this1, i32 0, i32 9
  %0 = load i32, ptr %sessionClosing_, align 8
  %cmp = icmp eq i32 %0, 0
  br i1 %cmp, label %land.lhs.true6, label %lor.lhs.false

lor.lhs.false:                                    ; preds = %entry
  %sessionClosing_2 = getelementptr inbounds %"class.proxygen::HTTPParallelCodec", ptr %this1, i32 0, i32 9
  %1 = load i32, ptr %sessionClosing_2, align 8
  %cmp3 = icmp eq i32 %1, 1
  br i1 %cmp3, label %land.lhs.true6, label %lor.lhs.false4

lor.lhs.false4:                                   ; preds = %lor.lhs.false
  %transportDirection_ = getelementptr inbounds %"class.proxygen::HTTPParallelCodec", ptr %this1, i32 0, i32 1
  %2 = load i8, ptr %transportDirection_, align 8
  %cmp5 = icmp eq i8 %2, 0
  br i1 %cmp5, label %land.lhs.true, label %land.end

land.lhs.true:                                    ; preds = %lor.lhs.false4
  %vtable = load ptr, ptr %this1, align 8
  %vfn = getelementptr inbounds ptr, ptr %vtable, i64 17
  %3 = load ptr, ptr %vfn, align 8
  %call = call noundef zeroext i1 %3(ptr noundef nonnull align 8 dereferenceable(92) %this1)
  br i1 %call, label %land.lhs.true6, label %land.end

land.lhs.true6:                                   ; preds = %land.lhs.true, %lor.lhs.false, %entry
  %ingressGoawayAck_ = getelementptr inbounds %"class.proxygen::HTTPParallelCodec", ptr %this1, i32 0, i32 6
  %4 = load i64, ptr %ingressGoawayAck_, align 8
  %call7 = call noundef i32 @_ZNSt14numeric_limitsIjE3maxEv() #3
  %conv = zext i32 %call7 to i64
  %cmp8 = icmp eq i64 %4, %conv
  br i1 %cmp8, label %land.rhs, label %land.end

land.rhs:                                         ; preds = %land.lhs.true6
  %nextEgressStreamID_ = getelementptr inbounds %"class.proxygen::HTTPParallelCodec", ptr %this1, i32 0, i32 3
  %5 = load i64, ptr %nextEgressStreamID_, align 8
  %call9 = call noundef i32 @_ZNSt14numeric_limitsIiE3maxEv() #3
  %sub = sub nsw i32 %call9, 2
  %conv10 = sext i32 %sub to i64
  %cmp11 = icmp ule i64 %5, %conv10
  br label %land.end

land.end:                                         ; preds = %land.rhs, %land.lhs.true6, %land.lhs.true, %lor.lhs.false4
  %6 = phi i1 [ false, %land.lhs.true6 ], [ false, %land.lhs.true ], [ false, %lor.lhs.false4 ], [ %cmp11, %land.rhs ]
  ret i1 %6
}