; Function Attrs: mustprogress uwtable
define noundef zeroext i1 @_ZNK8proxygen17HTTPParallelCodec10isReusableEv(ptr noundef nonnull align 8 dereferenceable(92) %this) unnamed_addr #3 align 2 {
entry:
  %sessionClosing_ = getelementptr inbounds i8, ptr %this, i64 88
  %0 = load i32, ptr %sessionClosing_, align 8
  %switch = icmp ult i32 %0, 2
  br i1 %switch, label %land.lhs.true6, label %lor.lhs.false4

lor.lhs.false4:                                   ; preds = %entry
  %transportDirection_ = getelementptr inbounds i8, ptr %this, i64 8
  %1 = load i8, ptr %transportDirection_, align 8
  %cmp5 = icmp eq i8 %1, 0
  br i1 %cmp5, label %land.lhs.true, label %land.end

land.lhs.true:                                    ; preds = %lor.lhs.false4
  %vtable = load ptr, ptr %this, align 8
  %vfn = getelementptr inbounds i8, ptr %vtable, i64 136
  %2 = load ptr, ptr %vfn, align 8
  %call = tail call noundef zeroext i1 %2(ptr noundef nonnull align 8 dereferenceable(92) %this)
  %ingressGoawayAck_ = getelementptr inbounds i8, ptr %this, i64 40
  %3 = load i64, ptr %ingressGoawayAck_, align 8
  %cmp8 = icmp eq i64 %3, 4294967295
  %or.cond = select i1 %call, i1 %cmp8, i1 false
  br i1 %or.cond, label %land.rhs, label %land.end

land.lhs.true6:                                   ; preds = %entry
  %ingressGoawayAck_.old = getelementptr inbounds i8, ptr %this, i64 40
  %.old = load i64, ptr %ingressGoawayAck_.old, align 8
  %cmp8.old = icmp eq i64 %.old, 4294967295
  br i1 %cmp8.old, label %land.rhs, label %land.end

land.rhs:                                         ; preds = %land.lhs.true, %land.lhs.true6
  %nextEgressStreamID_ = getelementptr inbounds i8, ptr %this, i64 16
  %4 = load i64, ptr %nextEgressStreamID_, align 8
  %cmp11 = icmp ult i64 %4, 2147483646
  br label %land.end

land.end:                                         ; preds = %land.rhs, %land.lhs.true6, %land.lhs.true, %lor.lhs.false4
  %5 = phi i1 [ false, %land.lhs.true6 ], [ false, %land.lhs.true ], [ false, %lor.lhs.false4 ], [ %cmp11, %land.rhs ]
  ret i1 %5
}